target datalayout = "e-m:e-p270:32:32-p271:32:32-p272:64:64-i64:64-i128:128-f80:128-n8:16:32:64-S128"
target triple = "x86_64-unknown-linux-gnu"

%"class.FLAC::Metadata::Prototype" = type <{ ptr, ptr, i8, [7 x i8] }>
%struct.FLAC__StreamMetadata_CueSheet_Index = type { i64, i8 }

; Function Attrs: mustprogress sspstrong uwtable
define noundef zeroext i1 @_ZN4FLAC8Metadata8CueSheet12insert_indexEjjRK35FLAC__StreamMetadata_CueSheet_Index(ptr noundef nonnull align 8 dereferenceable(17) %this, i32 noundef %track_num, i32 noundef %index_num, ptr noundef nonnull align 8 dereferenceable(16) %indx) #0 align 2 {
entry:
  %this.addr = alloca ptr, align 8
  %track_num.addr = alloca i32, align 4
  %index_num.addr = alloca i32, align 4
  %indx.addr = alloca ptr, align 8
  %agg.tmp = alloca %struct.FLAC__StreamMetadata_CueSheet_Index, align 8
  store ptr %this, ptr %this.addr, align 8
  store i32 %track_num, ptr %track_num.addr, align 4
  store i32 %index_num, ptr %index_num.addr, align 4
  store ptr %indx, ptr %indx.addr, align 8
  %this1 = load ptr, ptr %this.addr, align 8
  %object_ = getelementptr inbounds %"class.FLAC::Metadata::Prototype", ptr %this1, i32 0, i32 1
  %0 = load ptr, ptr %object_, align 8
  %1 = load i32, ptr %track_num.addr, align 4
  %2 = load i32, ptr %index_num.addr, align 4
  %3 = load ptr, ptr %indx.addr, align 8
  call void @llvm.memcpy.p0.p0.i64(ptr align 8 %agg.tmp, ptr align 8 %3, i64 16, i1 false)
  %4 = getelementptr inbounds { i64, i8 }, ptr %agg.tmp, i32 0, i32 0
  %5 = load i64, ptr %4, align 8
  %6 = getelementptr inbounds { i64, i8 }, ptr %agg.tmp, i32 0, i32 1
  %7 = load i8, ptr %6, align 8
  %call = call i32 @FLAC__metadata_object_cuesheet_track_insert_index(ptr noundef %0, i32 noundef %1, i32 noundef %2, i64 %5, i8 %7)
  %tobool = icmp ne i32 %call, 0
  ret i1 %tobool
}