; Function Attrs: mustprogress sspstrong uwtable
define noundef zeroext i1 @_ZN4FLAC8Metadata8CueSheet12insert_indexEjjRK35FLAC__StreamMetadata_CueSheet_Index(ptr nocapture noundef nonnull readonly align 8 dereferenceable(17) %this, i32 noundef %track_num, i32 noundef %index_num, ptr nocapture noundef nonnull readonly align 8 dereferenceable(16) %indx) local_unnamed_addr #0 align 2 {
entry:
  %object_ = getelementptr inbounds i8, ptr %this, i64 8
  %0 = load ptr, ptr %object_, align 8
  %agg.tmp.sroa.0.0.copyload = load i64, ptr %indx, align 8
  %agg.tmp.sroa.2.0..sroa_idx = getelementptr inbounds i8, ptr %indx, i64 8
  %agg.tmp.sroa.2.0.copyload = load i8, ptr %agg.tmp.sroa.2.0..sroa_idx, align 8
  %call = tail call i32 @FLAC__metadata_object_cuesheet_track_insert_index(ptr noundef %0, i32 noundef %track_num, i32 noundef %index_num, i64 %agg.tmp.sroa.0.0.copyload, i8 %agg.tmp.sroa.2.0.copyload)
  %tobool = icmp ne i32 %call, 0
  ret i1 %tobool
}